; Function Attrs: mustprogress uwtable
define hidden noundef i32 @_ZN2lp10lar_solver12mk_var_boundEjNS_16lconstraint_kindERK8rational(ptr noundef nonnull align 8 dereferenceable(2128) %0, i32 noundef %1, i32 noundef %2, ptr noundef nonnull align 8 dereferenceable(32) %3) local_unnamed_addr #5 align 2 personality ptr @__gxx_personality_v0 {
  %5 = alloca i32, align 4
  %6 = alloca %class.rational, align 8
  store i32 %2, ptr %5, align 4, !tbaa !557
  %7 = getelementptr inbounds nuw i8, ptr %0, i64 1320
  %8 = load ptr, ptr %7, align 8, !tbaa !264
  %9 = zext i32 %1 to i64
  %10 = getelementptr inbounds nuw %"class.lp::column", ptr %8, i64 %9, i32 2
  %11 = load ptr, ptr %10, align 8, !tbaa !296
  %.not = icmp eq ptr %11, null
  br i1 %.not, label %12, label %24

12:                                               ; preds = %4
  call void @llvm.lifetime.start.p0(i64 32, ptr nonnull %6) #30
  call void @_ZN2lp10lar_solver20adjust_bound_for_intEjRNS_16lconstraint_kindERK8rational(ptr dead_on_unwind nonnull writable sret(%class.rational) align 8 %6, ptr noundef nonnull align 8 dereferenceable(2128) %0, i32 noundef %1, ptr noundef nonnull align 4 dereferenceable(4) %5, ptr noundef nonnull align 8 dereferenceable(32) %3)
  %13 = getelementptr inbounds nuw i8, ptr %0, i64 1328
  %14 = load i32, ptr %5, align 4, !tbaa !557
  %15 = invoke noundef i32 @_ZN2lp14constraint_set18add_var_constraintEjNS_16lconstraint_kindERK8rational(ptr noundef nonnull align 8 dereferenceable(104) %13, i32 noundef %1, i32 noundef %14, ptr noundef nonnull align 8 dereferenceable(32) %6)
          to label %16 unwind label %22

16:                                               ; preds = %12
  %17 = load ptr, ptr @_ZN8rational13g_mpq_managerE, align 8, !tbaa !248
  invoke void @_ZN11mpz_managerILb1EE3delEPS0_R3mpz(ptr noundef %17, ptr noundef nonnull align 8 dereferenceable(32) %6)
          to label %.noexc.i unwind label %19

.noexc.i:                                         ; preds = %16
  %18 = getelementptr inbounds nuw i8, ptr %6, i64 16
  invoke void @_ZN11mpz_managerILb1EE3delEPS0_R3mpz(ptr noundef %17, ptr noundef nonnull align 8 dereferenceable(16) %18)
          to label %_ZN8rationalD2Ev.exit unwind label %19

19:                                               ; preds = %.noexc.i, %16
  %20 = landingpad { ptr, i32 }
          catch ptr null
  %21 = extractvalue { ptr, i32 } %20, 0
  call void @__clang_call_terminate(ptr %21) #31
  unreachable

_ZN8rationalD2Ev.exit:                            ; preds = %.noexc.i
  call void @llvm.lifetime.end.p0(i64 32, ptr nonnull %6) #30
  br label %26

22:                                               ; preds = %12
  %23 = landingpad { ptr, i32 }
          cleanup
  call void @_ZN8rationalD2Ev(ptr noundef nonnull align 8 dereferenceable(32) %6) #30
  call void @llvm.lifetime.end.p0(i64 32, ptr nonnull %6) #30
  resume { ptr, i32 } %23

24:                                               ; preds = %4
  %25 = tail call noundef i32 @_ZN2lp10lar_solver36add_var_bound_on_constraint_for_termEjNS_16lconstraint_kindERK8rational(ptr noundef nonnull align 8 dereferenceable(2128) %0, i32 noundef %1, i32 noundef %2, ptr noundef nonnull align 8 dereferenceable(32) %3)
  br label %26

26:                                               ; preds = %24, %_ZN8rationalD2Ev.exit
  %.0 = phi i32 [ %25, %24 ], [ %15, %_ZN8rationalD2Ev.exit ]
  ret i32 %.0
}